; ModuleID = '5/40.c'
source_filename = "5/40.c"
target datalayout = "e-m:e-p270:32:32-p271:32:32-p272:64:64-i64:64-f80:128-n8:16:32:64-S128"
target triple = "x86_64-pc-linux-gnu"

@.str = private unnamed_addr constant [4 x i8] c"%lf\00", align 1
@.str.1 = private unnamed_addr constant [3 x i8] c"%s\00", align 1
@.str.2 = private unnamed_addr constant [6 x i8] c"error\00", align 1
@.str.3 = private unnamed_addr constant [4 x i8] c"yes\00", align 1
@.str.4 = private unnamed_addr constant [3 x i8] c"no\00", align 1

; Function Attrs: noinline nounwind uwtable
define dso_local i32 @main() #0 {
  %1 = alloca i32, align 4
  %2 = alloca double, align 8
  %3 = alloca [502 x i8], align 16
  %4 = alloca [502 x i8], align 16
  %5 = alloca i32, align 4
  %6 = alloca i32, align 4
  %7 = alloca i32, align 4
  %8 = alloca i32, align 4
  %9 = alloca i32, align 4
  store i32 0, i32* %1, align 4
  %10 = call i32 (i8*, ...) @__isoc99_scanf(i8* getelementptr inbounds ([4 x i8], [4 x i8]* @.str, i64 0, i64 0), double* %2)
  %11 = call i32 (i8*, ...) @__isoc99_scanf(i8* getelementptr inbounds ([3 x i8], [3 x i8]* @.str.1, i64 0, i64 0), [502 x i8]* %3)
  %12 = call i32 (i8*, ...) @__isoc99_scanf(i8* getelementptr inbounds ([3 x i8], [3 x i8]* @.str.1, i64 0, i64 0), [502 x i8]* %4)
  %13 = getelementptr inbounds [502 x i8], [502 x i8]* %3, i64 0, i64 0
  %14 = call i64 @strlen(i8* %13) #3
  %15 = trunc i64 %14 to i32
  store i32 %15, i32* %5, align 4
  %16 = getelementptr inbounds [502 x i8], [502 x i8]* %4, i64 0, i64 0
  %17 = call i64 @strlen(i8* %16) #3
  %18 = trunc i64 %17 to i32
  store i32 %18, i32* %6, align 4
  store i32 0, i32* %8, align 4
  store i32 0, i32* %7, align 4
  br label %19

19:                                               ; preds = %53, %0
  %20 = load i32, i32* %7, align 4
  %21 = load i32, i32* %5, align 4
  %22 = icmp slt i32 %20, %21
  br i1 %22, label %23, label %56

23:                                               ; preds = %19
  %24 = load i32, i32* %7, align 4
  %25 = sext i32 %24 to i64
  %26 = getelementptr inbounds [502 x i8], [502 x i8]* %3, i64 0, i64 %25
  %27 = load i8, i8* %26, align 1
  %28 = sext i8 %27 to i32
  %29 = icmp ne i32 %28, 65
  br i1 %29, label %30, label %52

30:                                               ; preds = %23
  %31 = load i32, i32* %7, align 4
  %32 = sext i32 %31 to i64
  %33 = getelementptr inbounds [502 x i8], [502 x i8]* %3, i64 0, i64 %32
  %34 = load i8, i8* %33, align 1
  %35 = sext i8 %34 to i32
  %36 = icmp ne i32 %35, 71
  br i1 %36, label %37, label %52

37:                                               ; preds = %30
  %38 = load i32, i32* %7, align 4
  %39 = sext i32 %38 to i64
  %40 = getelementptr inbounds [502 x i8], [502 x i8]* %3, i64 0, i64 %39
  %41 = load i8, i8* %40, align 1
  %42 = sext i8 %41 to i32
  %43 = icmp ne i32 %42, 67
  br i1 %43, label %44, label %52

44:                                               ; preds = %37
  %45 = load i32, i32* %7, align 4
  %46 = sext i32 %45 to i64
  %47 = getelementptr inbounds [502 x i8], [502 x i8]* %3, i64 0, i64 %46
  %48 = load i8, i8* %47, align 1
  %49 = sext i8 %48 to i32
  %50 = icmp ne i32 %49, 84
  br i1 %50, label %51, label %52

51:                                               ; preds = %44
  store i32 1, i32* %9, align 4
  br label %52

52:                                               ; preds = %51, %44, %37, %30, %23
  br label %53

53:                                               ; preds = %52
  %54 = load i32, i32* %7, align 4
  %55 = add nsw i32 %54, 1
  store i32 %55, i32* %7, align 4
  br label %19

56:                                               ; preds = %19
  store i32 0, i32* %7, align 4
  br label %57

57:                                               ; preds = %91, %56
  %58 = load i32, i32* %7, align 4
  %59 = load i32, i32* %5, align 4
  %60 = icmp slt i32 %58, %59
  br i1 %60, label %61, label %94

61:                                               ; preds = %57
  %62 = load i32, i32* %7, align 4
  %63 = sext i32 %62 to i64
  %64 = getelementptr inbounds [502 x i8], [502 x i8]* %4, i64 0, i64 %63
  %65 = load i8, i8* %64, align 1
  %66 = sext i8 %65 to i32
  %67 = icmp ne i32 %66, 65
  br i1 %67, label %68, label %90

68:                                               ; preds = %61
  %69 = load i32, i32* %7, align 4
  %70 = sext i32 %69 to i64
  %71 = getelementptr inbounds [502 x i8], [502 x i8]* %4, i64 0, i64 %70
  %72 = load i8, i8* %71, align 1
  %73 = sext i8 %72 to i32
  %74 = icmp ne i32 %73, 71
  br i1 %74, label %75, label %90

75:                                               ; preds = %68
  %76 = load i32, i32* %7, align 4
  %77 = sext i32 %76 to i64
  %78 = getelementptr inbounds [502 x i8], [502 x i8]* %4, i64 0, i64 %77
  %79 = load i8, i8* %78, align 1
  %80 = sext i8 %79 to i32
  %81 = icmp ne i32 %80, 67
  br i1 %81, label %82, label %90

82:                                               ; preds = %75
  %83 = load i32, i32* %7, align 4
  %84 = sext i32 %83 to i64
  %85 = getelementptr inbounds [502 x i8], [502 x i8]* %4, i64 0, i64 %84
  %86 = load i8, i8* %85, align 1
  %87 = sext i8 %86 to i32
  %88 = icmp ne i32 %87, 84
  br i1 %88, label %89, label %90

89:                                               ; preds = %82
  store i32 1, i32* %9, align 4
  br label %90

90:                                               ; preds = %89, %82, %75, %68, %61
  br label %91

91:                                               ; preds = %90
  %92 = load i32, i32* %7, align 4
  %93 = add nsw i32 %92, 1
  store i32 %93, i32* %7, align 4
  br label %57

94:                                               ; preds = %57
  %95 = load i32, i32* %5, align 4
  %96 = load i32, i32* %6, align 4
  %97 = icmp ne i32 %95, %96
  br i1 %97, label %101, label %98

98:                                               ; preds = %94
  %99 = load i32, i32* %9, align 4
  %100 = icmp eq i32 %99, 1
  br i1 %100, label %101, label %103

101:                                              ; preds = %98, %94
  %102 = call i32 (i8*, ...) @printf(i8* getelementptr inbounds ([6 x i8], [6 x i8]* @.str.2, i64 0, i64 0))
  br label %141

103:                                              ; preds = %98
  store i32 0, i32* %7, align 4
  br label %104

104:                                              ; preds = %124, %103
  %105 = load i32, i32* %7, align 4
  %106 = load i32, i32* %5, align 4
  %107 = icmp slt i32 %105, %106
  br i1 %107, label %108, label %127

108:                                              ; preds = %104
  %109 = load i32, i32* %7, align 4
  %110 = sext i32 %109 to i64
  %111 = getelementptr inbounds [502 x i8], [502 x i8]* %3, i64 0, i64 %110
  %112 = load i8, i8* %111, align 1
  %113 = sext i8 %112 to i32
  %114 = load i32, i32* %7, align 4
  %115 = sext i32 %114 to i64
  %116 = getelementptr inbounds [502 x i8], [502 x i8]* %4, i64 0, i64 %115
  %117 = load i8, i8* %116, align 1
  %118 = sext i8 %117 to i32
  %119 = icmp eq i32 %113, %118
  br i1 %119, label %120, label %123

120:                                              ; preds = %108
  %121 = load i32, i32* %8, align 4
  %122 = add nsw i32 %121, 1
  store i32 %122, i32* %8, align 4
  br label %123

123:                                              ; preds = %120, %108
  br label %124

124:                                              ; preds = %123
  %125 = load i32, i32* %7, align 4
  %126 = add nsw i32 %125, 1
  store i32 %126, i32* %7, align 4
  br label %104

127:                                              ; preds = %104
  %128 = load i32, i32* %8, align 4
  %129 = sitofp i32 %128 to double
  %130 = fmul double 1.000000e+00, %129
  %131 = load i32, i32* %5, align 4
  %132 = sitofp i32 %131 to double
  %133 = fdiv double %130, %132
  %134 = load double, double* %2, align 8
  %135 = fcmp oge double %133, %134
  br i1 %135, label %136, label %138

136:                                              ; preds = %127
  %137 = call i32 (i8*, ...) @printf(i8* getelementptr inbounds ([4 x i8], [4 x i8]* @.str.3, i64 0, i64 0))
  br label %140

138:                                              ; preds = %127
  %139 = call i32 (i8*, ...) @printf(i8* getelementptr inbounds ([3 x i8], [3 x i8]* @.str.4, i64 0, i64 0))
  br label %140

140:                                              ; preds = %138, %136
  br label %141

141:                                              ; preds = %140, %101
  ret i32 0
}

declare dso_local i32 @__isoc99_scanf(i8*, ...) #1

; Function Attrs: nounwind readonly
declare dso_local i64 @strlen(i8*) #2

declare dso_local i32 @printf(i8*, ...) #1


!llvm.module.flags = !{!0}
!llvm.ident = !{!1}

!0 = !{i32 1, !"wchar_size", i32 4}
!1 = !{!"clang version 10.0.0-4ubuntu1 "}
